target datalayout = "e-m:e-p270:32:32-p271:32:32-p272:64:64-i64:64-i128:128-f80:128-n8:16:32:64-S128"
target triple = "x86_64-pc-linux-gnu"

%struct.Curl_easy = type { i32, i64, i64, ptr, %struct.Curl_llist_node, %struct.Curl_llist_node, i32, i32, %struct.Curl_message, %struct.easy_pollset, %struct.Names, ptr, ptr, ptr, ptr, %struct.SingleRequest, %struct.UserDefined, ptr, ptr, ptr, %struct.Progress, %struct.UrlState, ptr, %struct.PureInfo, %struct.curl_tlssessioninfo }
%struct.Curl_llist_node = type { ptr, ptr, ptr, ptr }
%struct.Curl_message = type { %struct.Curl_llist_node, %struct.CURLMsg }
%struct.CURLMsg = type { i32, ptr, %union.anon }
%union.anon = type { ptr }
%struct.easy_pollset = type { [5 x i32], i32, [5 x i8] }
%struct.Names = type { ptr, i32 }
%struct.SingleRequest = type <{ i64, i64, i64, i64, %struct.curltime, i32, i32, i32, i32, i64, i32, i32, i8, i8, [2 x i8], i32, ptr, ptr, %struct.bufq, i64, i64, ptr, ptr, %union.anon.0, ptr, i8, i32, [3 x i8] }>
%struct.curltime = type { i64, i32 }
%struct.bufq = type { ptr, ptr, ptr, ptr, i64, i64, i64, i32 }
%union.anon.0 = type { ptr }
%struct.UserDefined = type <{ ptr, ptr, ptr, ptr, ptr, ptr, i64, i64, i64, ptr, ptr, i64, ptr, ptr, ptr, ptr, ptr, ptr, ptr, ptr, ptr, ptr, ptr, ptr, ptr, ptr, ptr, ptr, ptr, ptr, ptr, ptr, ptr, ptr, ptr, i64, i64, i64, i64, i64, i64, i64, i64, i64, ptr, ptr, %struct.curl_mimepart, ptr, ptr, ptr, i64, %struct.ssl_config_data, %struct.ssl_config_data, ptr, i16, i8, i8, %struct.ssl_general_config, i32, i32, i32, [4 x i8], ptr, ptr, i64, i32, i8, i8, i8, i8, ptr, ptr, ptr, i32, [4 x i8], [74 x ptr], [8 x ptr], i32, i32, i32, [4 x i8], ptr, i32, [4 x i8], ptr, ptr, ptr, ptr, ptr, i32, i32, i32, i32, i32, i32, i32, i32, i64, ptr, ptr, i64, ptr, i64, ptr, ptr, ptr, ptr, i32, i16, i16, i16, i8, i8, i8, i8, i8, i8, i8, i8, i64, [6 x i8] }>
%struct.curl_mimepart = type { ptr, ptr, i32, i32, ptr, ptr, ptr, ptr, ptr, ptr, ptr, ptr, ptr, ptr, ptr, i64, %struct.mime_state, ptr, %struct.mime_encoder_state, i64 }
%struct.mime_state = type { i32, ptr, i64 }
%struct.mime_encoder_state = type { i64, i64, i64, [256 x i8] }
%struct.ssl_config_data = type { %struct.ssl_primary_config, i64, ptr, ptr, ptr, ptr, ptr, ptr, ptr, i16 }
%struct.ssl_primary_config = type { ptr, ptr, ptr, ptr, ptr, ptr, ptr, ptr, ptr, ptr, ptr, ptr, ptr, ptr, i8, i32, i8, i8 }
%struct.ssl_general_config = type { i32 }
%struct.Progress = type { i64, %struct.pgrs_dir, %struct.pgrs_dir, i64, i64, i32, i32, i64, i64, i64, i64, i64, i64, i64, i64, i64, %struct.curltime, %struct.curltime, %struct.curltime, %struct.curltime, %struct.curltime, [6 x i64], [6 x %struct.curltime], i32, i8 }
%struct.pgrs_dir = type { i64, i64, i64, %struct.pgrs_measure }
%struct.pgrs_measure = type { %struct.curltime, i64 }
%struct.UrlState = type { %struct.curltime, i64, i64, %struct.dynbuf, ptr, i64, ptr, i32, i32, i32, ptr, i32, i64, i32, ptr, %struct.digestdata, %struct.digestdata, %struct.auth, %struct.auth, %struct.Curl_async, ptr, i8, %struct.curltime, %struct.Curl_tree, %struct.Curl_llist, [15 x %struct.time_node], ptr, ptr, i64, i64, i64, i64, [32 x i8], i64, ptr, ptr, ptr, %struct.urlpieces, ptr, ptr, ptr, ptr, ptr, i64, %struct.dynbuf, %struct.Curl_llist, [2 x %struct.curl_header], ptr, i32, ptr, ptr, %struct.store_netrc, %struct.dynamically_allocated_data, i8, i8, i8, i8, i32 }
%struct.digestdata = type { ptr, ptr, ptr, ptr, ptr, ptr, i32, i8, i8 }
%struct.auth = type { i64, i64, i64, i8 }
%struct.Curl_async = type { ptr, ptr, ptr, ptr, i32, i32, i8 }
%struct.Curl_tree = type { ptr, ptr, ptr, ptr, %struct.curltime, ptr }
%struct.time_node = type { %struct.Curl_llist_node, %struct.curltime, i32 }
%struct.urlpieces = type { ptr, ptr, ptr, ptr, ptr, ptr, ptr, ptr }
%struct.dynbuf = type { ptr, i64, i64, i64 }
%struct.Curl_llist = type { ptr, ptr, ptr, i64 }
%struct.curl_header = type { ptr, ptr, i64, i64, i32, ptr }
%struct.store_netrc = type { %struct.dynbuf, ptr, i8 }
%struct.dynamically_allocated_data = type { ptr, ptr, ptr, ptr, ptr, ptr, ptr, ptr, ptr, ptr, ptr, ptr, ptr, ptr }
%struct.PureInfo = type { i32, i32, i32, i64, i64, i64, i64, i64, i64, i64, ptr, ptr, i64, i32, %struct.ip_quadruple, i32, ptr, i32, %struct.curl_certinfo, i32, i8 }
%struct.ip_quadruple = type { [46 x i8], [46 x i8], i32, i32 }
%struct.curl_certinfo = type { i32, ptr }
%struct.curl_tlssessioninfo = type { i32, ptr }

@Curl_debug.s_infotype = internal constant [7 x [3 x i8]] [[3 x i8] c"* \00", [3 x i8] c"< \00", [3 x i8] c"> \00", [3 x i8] c"{ \00", [3 x i8] c"} \00", [3 x i8] c"{ \00", [3 x i8] c"} \00"], align 16

; Function Attrs: nounwind uwtable
define hidden void @Curl_debug(ptr noundef %0, i32 noundef %1, ptr noundef %2, i64 noundef %3) #0 {
  %5 = alloca ptr, align 8
  %6 = alloca i32, align 4
  %7 = alloca ptr, align 8
  %8 = alloca i64, align 8
  %9 = alloca i8, align 1
  store ptr %0, ptr %5, align 8, !tbaa !3
  store i32 %1, ptr %6, align 4, !tbaa !8
  store ptr %2, ptr %7, align 8, !tbaa !10
  store i64 %3, ptr %8, align 8, !tbaa !12
  %10 = load ptr, ptr %5, align 8, !tbaa !3
  %11 = getelementptr inbounds nuw %struct.Curl_easy, ptr %10, i32 0, i32 16
  %12 = getelementptr inbounds nuw %struct.UserDefined, ptr %11, i32 0, i32 119
  %13 = load i64, ptr %12, align 2
  %14 = lshr i64 %13, 31
  %15 = and i64 %14, 1
  %16 = trunc i64 %15 to i32
  %17 = icmp ne i32 %16, 0
  br i1 %17, label %18, label %67

18:                                               ; preds = %4
  %19 = load ptr, ptr %5, align 8, !tbaa !3
  %20 = getelementptr inbounds nuw %struct.Curl_easy, ptr %19, i32 0, i32 16
  %21 = getelementptr inbounds nuw %struct.UserDefined, ptr %20, i32 0, i32 18
  %22 = load ptr, ptr %21, align 8, !tbaa !14
  %23 = icmp ne ptr %22, null
  br i1 %23, label %24, label %45

24:                                               ; preds = %18
  call void @llvm.lifetime.start.p0(i64 1, ptr %9) #5
  %25 = load ptr, ptr %5, align 8, !tbaa !3
  %26 = call zeroext i1 @Curl_is_in_callback(ptr noundef %25)
  %27 = zext i1 %26 to i8
  store i8 %27, ptr %9, align 1, !tbaa !80
  %28 = load ptr, ptr %5, align 8, !tbaa !3
  call void @Curl_set_in_callback(ptr noundef %28, i1 noundef zeroext true)
  %29 = load ptr, ptr %5, align 8, !tbaa !3
  %30 = getelementptr inbounds nuw %struct.Curl_easy, ptr %29, i32 0, i32 16
  %31 = getelementptr inbounds nuw %struct.UserDefined, ptr %30, i32 0, i32 18
  %32 = load ptr, ptr %31, align 8, !tbaa !14
  %33 = load ptr, ptr %5, align 8, !tbaa !3
  %34 = load i32, ptr %6, align 4, !tbaa !8
  %35 = load ptr, ptr %7, align 8, !tbaa !10
  %36 = load i64, ptr %8, align 8, !tbaa !12
  %37 = load ptr, ptr %5, align 8, !tbaa !3
  %38 = getelementptr inbounds nuw %struct.Curl_easy, ptr %37, i32 0, i32 16
  %39 = getelementptr inbounds nuw %struct.UserDefined, ptr %38, i32 0, i32 1
  %40 = load ptr, ptr %39, align 8, !tbaa !82
  %41 = call i32 %32(ptr noundef %33, i32 noundef %34, ptr noundef %35, i64 noundef %36, ptr noundef %40)
  %42 = load ptr, ptr %5, align 8, !tbaa !3
  %43 = load i8, ptr %9, align 1, !tbaa !80, !range !83, !noundef !84
  %44 = trunc i8 %43 to i1
  call void @Curl_set_in_callback(ptr noundef %42, i1 noundef zeroext %44)
  call void @llvm.lifetime.end.p0(i64 1, ptr %9) #5
  br label %66

45:                                               ; preds = %18
  %46 = load i32, ptr %6, align 4, !tbaa !8
  switch i32 %46, label %64 [
    i32 0, label %47
    i32 2, label %47
    i32 1, label %47
  ]

47:                                               ; preds = %45, %45, %45
  %48 = load i32, ptr %6, align 4, !tbaa !8
  %49 = zext i32 %48 to i64
  %50 = getelementptr inbounds nuw [7 x [3 x i8]], ptr @Curl_debug.s_infotype, i64 0, i64 %49
  %51 = getelementptr inbounds [3 x i8], ptr %50, i64 0, i64 0
  %52 = load ptr, ptr %5, align 8, !tbaa !3
  %53 = getelementptr inbounds nuw %struct.Curl_easy, ptr %52, i32 0, i32 16
  %54 = getelementptr inbounds nuw %struct.UserDefined, ptr %53, i32 0, i32 0
  %55 = load ptr, ptr %54, align 8, !tbaa !85
  %56 = call i64 @fwrite(ptr noundef %51, i64 noundef 2, i64 noundef 1, ptr noundef %55)
  %57 = load ptr, ptr %7, align 8, !tbaa !10
  %58 = load i64, ptr %8, align 8, !tbaa !12
  %59 = load ptr, ptr %5, align 8, !tbaa !3
  %60 = getelementptr inbounds nuw %struct.Curl_easy, ptr %59, i32 0, i32 16
  %61 = getelementptr inbounds nuw %struct.UserDefined, ptr %60, i32 0, i32 0
  %62 = load ptr, ptr %61, align 8, !tbaa !85
  %63 = call i64 @fwrite(ptr noundef %57, i64 noundef %58, i64 noundef 1, ptr noundef %62)
  br label %65

64:                                               ; preds = %45
  br label %65

65:                                               ; preds = %64, %47
  br label %66

66:                                               ; preds = %65, %24
  br label %67

67:                                               ; preds = %66, %4
  ret void
}